; Function Attrs: mustprogress uwtable
define noundef zeroext i1 @_ZNK10open_spiel5tarok10TarokState22AnyPlayerWithoutTaroksEv(ptr noundef nonnull readonly align 8 captures(none) dereferenceable(280) %0) local_unnamed_addr #5 align 2 {
  %2 = getelementptr inbounds nuw i8, ptr %0, i64 28
  %3 = load i32, ptr %2, align 4
  %4 = icmp sgt i32 %3, 0
  br i1 %4, label %.lr.ph, label %._crit_edge

.lr.ph:                                           ; preds = %1
  %5 = getelementptr inbounds nuw i8, ptr %0, i64 120
  %6 = getelementptr inbounds nuw i8, ptr %0, i64 128
  %7 = load ptr, ptr %6, align 8
  %8 = load ptr, ptr %5, align 8
  %9 = ptrtoint ptr %7 to i64
  %10 = ptrtoint ptr %8 to i64
  %11 = sub i64 %9, %10
  %12 = sdiv exact i64 %11, 24
  %wide.trip.count = zext nneg i32 %3 to i64
  br label %13

13:                                               ; preds = %_ZNK10open_spiel5tarok10TarokState12ActionToCardEl.exit, %.lr.ph
  %indvars.iv = phi i64 [ 0, %.lr.ph ], [ %indvars.iv.next, %_ZNK10open_spiel5tarok10TarokState12ActionToCardEl.exit ]
  %exitcond.not = icmp eq i64 %indvars.iv, %12
  br i1 %exitcond.not, label %14, label %_ZNKSt6vectorIS_IlSaIlEESaIS1_EE2atEm.exit

14:                                               ; preds = %13
  tail call void (ptr, ...) @_ZSt24__throw_out_of_range_fmtPKcz(ptr noundef nonnull @.str.94, i64 noundef %12, i64 noundef %12) #31
  unreachable

_ZNKSt6vectorIS_IlSaIlEESaIS1_EE2atEm.exit:       ; preds = %13
  %15 = getelementptr inbounds nuw %"class.std::vector.31", ptr %8, i64 %indvars.iv
  %16 = load ptr, ptr %15, align 8
  %17 = load i64, ptr %16, align 8
  %18 = icmp ult i64 %17, 54
  br i1 %18, label %_ZNK10open_spiel5tarok10TarokState12ActionToCardEl.exit, label %19

19:                                               ; preds = %_ZNKSt6vectorIS_IlSaIlEESaIS1_EE2atEm.exit
  tail call void (ptr, ...) @_ZSt24__throw_out_of_range_fmtPKcz(ptr noundef nonnull @.str.48, i64 noundef %17, i64 noundef 54) #31
  unreachable

_ZNK10open_spiel5tarok10TarokState12ActionToCardEl.exit: ; preds = %_ZNKSt6vectorIS_IlSaIlEESaIS1_EE2atEm.exit
  %20 = getelementptr inbounds nuw [54 x %"struct.open_spiel::tarok::Card"], ptr @_ZN10open_spiel5tarok9TarokGame10card_deck_E, i64 0, i64 %17
  %21 = load i32, ptr %20, align 8
  %.not.not = icmp ne i32 %21, 4
  %indvars.iv.next = add nuw nsw i64 %indvars.iv, 1
  %exitcond19.not = icmp eq i64 %indvars.iv.next, %wide.trip.count
  %or.cond = select i1 %.not.not, i1 true, i1 %exitcond19.not
  br i1 %or.cond, label %._crit_edge, label %13, !llvm.loop !63

._crit_edge:                                      ; preds = %_ZNK10open_spiel5tarok10TarokState12ActionToCardEl.exit, %1
  %.lcssa9 = phi i1 [ false, %1 ], [ %.not.not, %_ZNK10open_spiel5tarok10TarokState12ActionToCardEl.exit ]
  ret i1 %.lcssa9
}